(lp1
(lp2
F0.11995751784562547
aF-0.17178680517937667
aF-0.056035504691602518
aF-0.11558563949931455
aF0.18457369674557247
aF0.15425684050219732
aF0.25543366634713738
aF-0.14512281934618915
aF0.017306027182758497
aF-0.21466750671464263
aF-0.068227598513523405
aF0.03476419652054076
aF-0.15714025574875307
aF-0.095019766645945428
aF0.12723735151726132
aF0.098231578885194154
aF-0.042840749115030975
aF0.083457957946036859
aF0.20526046720819746
aF-0.17836103650949914
aF0.18686092820188155
aF0.16125848206927981
aF-0.062197636891417794
aF-0.11010060834606872
aF0.26576500999919167
aF-0.044267592799437844
aF-0.15035930586493632
aF-0.18905292783287697
aF0.23235121911050388
aF0.081828124685495801
aF0.20273424906627074
aF0.17718532070247023
aF0.10154580813198516
aF0.28169227153446147
aF-0.014095166452060994
aF0.066766295190536867
aF0.18779424047248769
aF0.12384667955998288
aF0.22134549713879798
aF0.094341708715008882
aF0.16040486567701179
aF-0.17692249578909619
aa(lp3
F-0.059138306238730454
aF-0.037820877725035312
aF-0.15499633781869879
aF-0.086731838743586268
aF-0.12682343600118662
aF-0.067284844404779359
aF0.15343939873827805
aF0.0093924658400822737
aF-0.014647999272276955
aF-0.090674577640035919
aF-0.05492256521544784
aF0.25784001278963103
aF0.15630346268183332
aF0.13347816269579371
aF-0.11275006288519529
aF0.17237142830793087
aF-0.11759030757700394
aF0.014018511163712041
aF0.34067329923098
aF0.19266633581491854
aF0.10185983969855751
aF0.14426310447491644
aF0.24225563301870959
aF0.24529974204035015
aF-0.10550195550713459
aF-0.1932101911738453
aF-0.027346940249670468
aF-0.097610920583409172
aF-0.098107434476122871
aF0.31063430084120808
aF0.24397565307813895
aF-0.026250722523081114
aF0.12742587247264983
aF0.010922735018060788
aF0.29238751877953206
aF0.034061457537830082
aF-0.086068381867205765
aF-0.055216708714944183
aF0.10628799425667376
aF-0.051726336692521864
aF0.10553731432109725
aF0.27528815474428081
aa(lp4
F0.031372138560522796
aF-0.064965822995313977
aF0.26692725155708641
aF0.033205643092512983
aF-0.13730572928856322
aF-0.16311110382053959
aF-0.14954815229205962
aF0.11452945778088365
aF0.18654356724508334
aF-0.022689724627953493
aF-0.15789120611543689
aF-0.037287978363584807
aF0.31528720062805687
aF0.053860135788898353
aF0.26929289684555013
aF0.22135787412362223
aF-0.18275190045108358
aF0.17055735622507986
aF0.11691573513697644
aF0.098576862795911643
aF-0.087010160072648904
aF0.11280764651312522
aF-0.15990448727223094
aF0.039267904202900987
aF0.020633868063396878
aF0.26460728458593646
aF0.27109235037507295
aF-0.097640328579768246
aF0.049447235795539578
aF-0.10345785092040684
aF0.23267305792053464
aF0.2316590311717921
aF-0.033853464335813446
aF0.08936146081807414
aF0.10537154492721651
aF-0.11921751128674564
aF0.16114035857706704
aF0.054945760353419894
aF0.18364240670714924
aF0.068008893824228644
aF-0.21341445554220809
aF-0.031859746908746704
aa(lp5
F-0.16152009900527356
aF0.28519286104157526
aF0.24743537617349579
aF0.21739300395115574
aF-0.034331356667918422
aF-0.13917262123915283
aF0.24567922368715717
aF0.29053747628569643
aF-0.14789917524375648
aF0.043527375083805261
aF-0.13882834816155201
aF0.1374822202205469
aF0.22093657777554221
aF-0.1033933006090022
aF0.053223102859619155
aF0.072173838142031918
aF-0.027599821921219986
aF0.23446336429299405
aF0.013947108276605604
aF-0.077505687137503054
aF0.084989790765518394
aF0.16996876372561914
aF-0.094859910877498191
aF-0.027231259246153064
aF0.30652630759037114
aF0.14604516790214919
aF0.043960603559339104
aF0.065208202102251811
aF-0.12647333607950992
aF-0.062616147674317307
aF-0.029035701014975938
aF0.099118274147301649
aF-0.056966807866897021
aF-0.10319193548087437
aF-0.14917719266584553
aF0.10144276275385988
aF-0.1074858178467733
aF0.24865009233358723
aF0.22649243152077667
aF-0.16412239520686434
aF-0.070447714364190589
aF0.16255676852027878
aa(lp6
F-0.070248828769452903
aF-0.12560292958017563
aF0.26813490087038044
aF0.077168036317845884
aF0.067228322000683169
aF0.18572183813487955
aF0.20279536309516291
aF-0.079654743131693823
aF-0.17512122440349512
aF0.0029907228701939251
aF0.018154142920709732
aF-0.0024852441979059531
aF0.1672506181244372
aF0.10060351394224905
aF0.26668327372006434
aF-0.19917928965834819
aF-0.003722155665988111
aF-0.050445666031426993
aF0.21313601346731961
aF-0.04401956452299316
aF-0.11899804576791352
aF0.0067564905012028323
aF-0.02306185384873026
aF-0.05617034612453356
aF-0.081005636761254454
aF0.22193314989430737
aF0.021042289123733182
aF0.19269845329127333
aF0.071730864273438597
aF-0.18847699721435307
aF0.27189135218745303
aF0.22367962992373347
aF0.29493941094752368
aF0.21872073447912588
aF0.19030545861305367
aF-0.1184529391071701
aF0.015366126985521008
aF-0.085039962018898671
aF-0.0034402053649895182
aF-0.17735491728600819
aF-0.019074630596003981
aF0.29128712337685403
aa(lp7
F-0.070728891632611965
aF0.20097089647057068
aF0.031708076586566027
aF-0.0093919155891841431
aF0.28446895344011741
aF0.30440712648309676
aF0.05548868663394884
aF0.16752618525814719
aF-0.12024701708151503
aF-0.045348252703069657
aF0.28839377060472016
aF0.032401438974751492
aF0.090656315596592055
aF0.20503460434475471
aF-0.17899869593360571
aF0.081894597212276515
aF0.047291360823175276
aF0.20748080378509842
aF-0.14175509081314042
aF0.27651185116285404
aF-0.15621971343941124
aF-0.12165822787532039
aF0.031910156863134177
aF0.14027124417835091
aF-0.12283241614699204
aF-0.17068787012089118
aF0.25276732522521483
aF-0.14267155506982537
aF0.088482255863835638
aF0.12283976978182605
aF0.0059807066440468702
aF0.11060346776650577
aF0.072230439030323723
aF0.26106604946089412
aF-0.10334184819196975
aF0.14826553491157873
aF-0.11935929552458865
aF-0.0067047182574875774
aF0.12828595285943392
aF-0.045400918900770658
aF-0.070254654441209013
aF0.22331115719816055
aa(lp8
F-0.10018131514589441
aF0.044798724060144214
aF0.28797974407717686
aF0.28420744425649891
aF-0.11320460167200076
aF-0.080839449799180202
aF-0.043719275241481503
aF0.28946449291265181
aF0.21596383425447208
aF0.21460200428534087
aF-0.017957564179267416
aF-0.14431684576466414
aF0.20821830031593119
aF0.12269533784310069
aF0.039136999900708382
aF0.25611263317606492
aF0.13398610415354073
aF-0.19082782464593082
aF0.19146216618311709
aF-0.022754018298140753
aF0.10500731366998795
aF0.26344323589111296
aF-0.15911061018172407
aF-0.11925869020268146
aF-0.12723257935761112
aF0.047227556873461807
aF-0.039399037286080102
aF0.085868616601694078
aF0.16451307441534085
aF-0.10223151729954562
aF0.081598859265274382
aF-0.077343053812586132
aF0.056449688614266677
aF0.22422872084295006
aF0.17798811295470385
aF-0.13386290697690484
aF-0.017462539955300067
aF-0.097770196284600749
aF-0.17662401134303632
aF0.18235138742758861
aF0.096432022072995588
aF-0.064297231692507242
aa(lp9
F0.15848386045507032
aF0.074517776907042935
aF-0.017289820024312359
aF-0.23262038763497758
aF-0.19125989414826597
aF0.15932490357023604
aF0.20958162296865207
aF0.054203472320544656
aF0.1725787701138054
aF0.019055602511224332
aF-0.13069751494166423
aF-0.18209984249428296
aF-0.041262207501798057
aF0.18015215681409566
aF0.12947327837155617
aF0.15765100034005627
aF0.1867439029211635
aF-0.13384762563954158
aF-0.12685614696037087
aF-0.12088107105884348
aF0.13625844989881261
aF0.18800228896322041
aF-0.085206832370922581
aF0.034685885351255649
aF-0.16275024326888551
aF0.1782654445114274
aF0.22191703205821123
aF0.19486962867853561
aF0.17352142672425855
aF0.18429214928804047
aF-0.24448902431901923
aF0.12440591689657519
aF-0.036233312950660373
aF0.18811804324739678
aF0.10841564200147663
aF0.18310006593581274
aF0.13833515773919589
aF-0.082863785390518002
aF0.13063872587924913
aF-0.14532457491163009
aF0.18821826989423621
aF0.19404200256965312
aa(lp10
F-0.06699230209968636
aF0.21757754814042637
aF0.049167131465571695
aF-0.071034394225415867
aF0.22882494562046185
aF-0.082932450126810997
aF-0.18535827589172957
aF-0.1056372389914448
aF-0.043920274121231499
aF0.20590181810275529
aF0.27822353338980876
aF-0.072639733201611947
aF0.1507182507254842
aF0.0041570744213251035
aF0.2686455074582802
aF0.069832114353758842
aF0.26810903849028811
aF-0.15892166859585657
aF0.27587833197126571
aF-0.080025381607882459
aF0.27774754726621015
aF-0.091621472108965984
aF-0.20302195490820349
aF0.025589787949484098
aF0.18870266487985035
aF-0.091466024745401706
aF0.12029496927936406
aF0.04778925158395627
aF0.0014521823504306231
aF0.090011284290660507
aF-0.09301970767980447
aF0.15040925472325312
aF-0.18989529713757136
aF0.24216649030639067
aF0.052470301502343636
aF0.15417944767631275
aF0.13816300137037105
aF0.1119562077574561
aF-0.010869007458430465
aF-0.17732446249287162
aF0.13247297790705259
aF-0.0053211934841704868
aa(lp11
F0.0063515362710158786
aF0.27269790823533541
aF0.21719964509762577
aF-0.067226155489131398
aF-0.042103627807524684
aF0.035647637809655276
aF0.01565327536649002
aF-0.024523204671843098
aF-0.14510206206795401
aF0.046233937785390679
aF0.30327737120268872
aF0.14967050567957177
aF0.30827174183196654
aF0.13117296525181818
aF-0.058287728698951539
aF0.096146469005394919
aF-0.19920830710447079
aF-0.038430199794736684
aF0.0046294385075549126
aF0.13147407568015976
aF0.17071506339518708
aF0.031275986727546112
aF0.0053180895639823719
aF-0.060050517693059094
aF0.059088733822720431
aF0.30642276892086623
aF0.2428416018277274
aF-0.14053945783779123
aF-0.16036977323532894
aF0.10364088515008467
aF0.13433191470460662
aF-0.0051870783021287824
aF0.25547841426368229
aF0.18969744039698058
aF0.15432067816442613
aF-0.075945306540236651
aF-0.10830018707645016
aF-0.20917079008799172
aF-0.083122111278325556
aF0.053991525425226811
aF0.25121593943058973
aF-0.15950858320529065
aa(lp12
F-0.027292280531797289
aF0.11101646295171065
aF-0.12577087160645603
aF0.13160067628015723
aF0.01816055803796654
aF-0.098985220550469905
aF0.096167295524117208
aF-0.22446934437547222
aF0.16712301220023462
aF0.16654272811447549
aF-0.17134606180735376
aF-0.029257443684009572
aF-0.10045540867959547
aF0.30449061817506684
aF0.030343651535531223
aF-0.2010502455278394
aF-0.088313982475379055
aF0.20472196482680041
aF-0.0038827953173359415
aF0.23577293512140993
aF0.10801270491730146
aF0.30044886542979077
aF0.043404393246247251
aF0.30562513503267918
aF0.23087481691238587
aF0.078360504553627183
aF0.17238173595196932
aF0.02366027746653342
aF0.21737226338768226
aF0.04317655946721996
aF0.23237502800969051
aF0.18743166679210965
aF0.05042302467710754
aF-0.13417827992000853
aF-0.11566908720346335
aF0.10145737267673204
aF0.14395517024324012
aF0.042702662526259601
aF0.091888938138212306
aF-0.089557106966496283
aF-0.18294430157471972
aF-0.082454484276410681
aa(lp13
F-0.040329873907516002
aF-0.012021084023265374
aF0.12349083152900869
aF-0.13314109566960738
aF-0.076620115340288619
aF0.15320068817005481
aF0.19797722405392867
aF-0.16625494389850545
aF0.0073723505413709834
aF0.093457074877007801
aF0.04534577746488376
aF-0.098021522487647783
aF0.056727401902102473
aF0.31656891844724089
aF0.10208611949064705
aF0.19076556245429921
aF0.28854601353004611
aF0.26281444044652358
aF0.0088678410389621386
aF-0.19912157903163552
aF-0.017491973003175721
aF0.22882961652415096
aF0.25823436937163469
aF0.34865643473534069
aF0.040170541262786373
aF0.18287763089990536
aF0.12387445332172319
aF0.10885782569579684
aF-0.092040981163584223
aF-0.096440074638313611
aF0.028351944856135011
aF-0.22000684426994907
aF0.0099559144415910378
aF0.16753551286608045
aF-0.02530779013181756
aF-0.14459622045792403
aF0.04018396177986551
aF-0.12800203715593561
aF0.16056081820153262
aF-0.17856736699919581
aF0.010790956048891524
aF0.10330854148189678
aa(lp14
F-0.13408900061103221
aF0.14186906118854894
aF-0.11191951596816531
aF0.033666234741869666
aF-0.13205693092077081
aF0.019896484447224656
aF-0.052347464676672957
aF-0.01943117811716542
aF0.18364811098411962
aF-0.0066530750731459889
aF0.1790852241524778
aF0.22019971869902027
aF-0.033670933156768154
aF-0.15559259232728542
aF-0.19066238330404384
aF0.073731851239813642
aF0.322696902239826
aF-0.019597919046515415
aF0.12454990508251589
aF0.22905968390388473
aF0.13074527750257967
aF0.21035601450824665
aF0.26732729630436325
aF-0.070629917697064129
aF-0.17639443132529378
aF-0.10814710463946357
aF-0.10639416431481449
aF0.13615133566962848
aF0.11471251888523826
aF-0.071881603603454511
aF0.16416404185823247
aF0.21225648270366207
aF-0.11879884379399776
aF0.10246501049812019
aF0.19643712229001165
aF-0.1284785583327108
aF0.21083390243420227
aF0.28472515614931176
aF-0.11221369053372676
aF-0.16324721858919813
aF-0.045363260285575538
aF0.16125498136543823
aa(lp15
F0.28957124031676745
aF-0.010776987046597223
aF0.15490478450004652
aF-0.21062153762501018
aF0.1354488201370054
aF0.073968127883323909
aF-0.21678270532584315
aF0.17093632323346442
aF0.22064482144459577
aF0.077682056586426712
aF-0.18310774360552276
aF0.22989420034067598
aF0.196912569935837
aF-0.050196934845403864
aF-0.024408380538367819
aF-0.076923022322389095
aF0.039980230875500157
aF-0.10173913457224834
aF0.19862304667916153
aF0.21317580133602854
aF-0.2005383955016683
aF0.27285050940926164
aF0.053026349882133603
aF0.19794675921224961
aF0.099027670388596764
aF-0.027982824985452362
aF0.15298222759543931
aF0.24123172334509832
aF-0.12779900483285439
aF0.1749862751062449
aF0.015439787390363682
aF0.016521368907428675
aF-0.0039236870270460454
aF0.13104005475572211
aF-0.090320028837054062
aF0.18362536224217968
aF0.14645583088714403
aF-0.19013334539196111
aF0.18074292645703405
aF-0.11141501283705353
aF-0.0077439258734939608
aF0.061497837006660123
aa(lp16
F0.0314502499556076
aF-0.17479317007738765
aF0.27803260424810183
aF-0.1132141834628372
aF-0.078460948912509626
aF0.2396416670772831
aF-0.0037099376448672975
aF0.28007245823003257
aF0.1970886462215917
aF-0.048474531386471224
aF-0.19748967286251079
aF0.31543806989660184
aF-0.1273765713811057
aF0.20482217469362632
aF0.064456526003796782
aF0.18806934687524915
aF0.18718000243203292
aF0.14305795983366523
aF0.062310503477964678
aF0.231888310401866
aF-0.14261698963546071
aF-0.097770552723128734
aF0.15829853387282783
aF-0.021336736962742232
aF0.11392346521306722
aF0.048364664760737662
aF0.12146320363158726
aF-0.014779742889736153
aF0.2082060622775512
aF-0.034405927567055954
aF0.16268801525530763
aF-0.045850357362836699
aF-0.049570832132631672
aF-0.1654106484114756
aF-0.1136593420208704
aF-0.14490394244651003
aF0.070275502704894674
aF0.2302967378274679
aF-0.11734198716365944
aF-0.077543615736052562
aF0.070314076429901506
aF0.20125763425639498
aa(lp17
F0.31956254206343976
aF0.083464824521539721
aF-0.027682281390114652
aF-0.17071868934637846
aF-0.090915357180395617
aF-0.08509796734540051
aF-0.097218967673475917
aF-0.16101326291430904
aF0.081097439289192705
aF-0.063551065339991109
aF0.29452128185231757
aF0.063208992048224388
aF0.1854928225098611
aF-0.1215604119016082
aF0.25454968501307262
aF0.055077663766835101
aF0.26928667977011045
aF0.08181341942358844
aF0.027241483753817641
aF0.033589549108469605
aF-0.096714892909523634
aF-0.18132242927904252
aF0.25156987289341792
aF0.06334900566723671
aF0.21875570365209618
aF0.024617969489649966
aF-0.14473195094758415
aF0.092070738231905508
aF-0.15915800728298099
aF-0.1244329398682259
aF0.091228284149958982
aF-0.011977528178707226
aF0.32074644745883252
aF-0.14507838556024041
aF0.17455625376653236
aF0.11705657203217741
aF0.17076979664337655
aF-0.070645268017267282
aF0.081658618214923026
aF0.056632413612856855
aF0.014657456887235324
aF0.24825969885123117
aa(lp18
F0.28766343449488829
aF-0.049435642373963029
aF0.12301234087697568
aF0.097367089182363434
aF0.17392008055296154
aF0.25662149877593649
aF-0.15510762364941533
aF-0.092133174699236584
aF0.12661436478196283
aF-0.170860817996251
aF-0.13322593104832867
aF-0.1999994144553453
aF-0.18315550820839413
aF-0.010078960808427854
aF0.069104205750588718
aF-0.083142130157398686
aF-0.094841525710232202
aF0.14203087934176309
aF0.15208739217798137
aF0.042349343860527973
aF0.1436676027962234
aF0.26869028489098129
aF0.15771309854468787
aF0.11113576545327485
aF0.083433872688318131
aF0.2528982807226563
aF0.01911131065321198
aF0.039686188684399118
aF0.1099757889089704
aF0.23245653817961817
aF0.2056167097750434
aF-0.18938274874062008
aF-0.11707152391376863
aF-0.071779200085160547
aF0.14894501437320659
aF0.08325977263217052
aF-0.12431516138013984
aF-0.15869956614212324
aF0.13387039262215558
aF0.16338987038031721
aF0.27587222790159649
aF0.051109532162203417
aa(lp19
F0.075806648619672193
aF-0.18548890030647083
aF-0.20202388203169466
aF-0.028752364320071003
aF-0.022642809406482119
aF-0.075866546058041121
aF-0.1635167309683907
aF0.30377265978635076
aF0.22169955909332484
aF0.069322004097884915
aF0.28057106507890545
aF0.24569166077590965
aF0.14335824891665602
aF-0.056064622116857248
aF-0.1977037583171716
aF0.16134268757533463
aF0.017209167962594071
aF0.1020952684940955
aF0.22423695436564006
aF-0.12178003989779816
aF0.06117692286473856
aF0.11690745127118181
aF0.0019512101586720487
aF-0.14887911864257652
aF-0.036637579295511279
aF-0.037551229876322138
aF0.12965822476441988
aF0.20407303725626658
aF-0.045721123562734001
aF0.14231854241085226
aF-0.10066266962559266
aF0.26722754218646949
aF0.19759215566880742
aF0.039489760253477849
aF0.0062122393065185437
aF-0.062644881244246844
aF-0.10482531852155792
aF0.28687690132403132
aF-0.020545519468869674
aF0.037591070670377549
aF0.27615092082565412
aF0.12088761134314287
aa(lp20
F0.053939285776302574
aF-0.041354215829295951
aF-0.13259759491738535
aF-0.077400120259825941
aF0.18156296288401783
aF0.11892533055722136
aF0.17596061808555694
aF-0.093873706801575002
aF0.027912677697180168
aF0.24933295832413616
aF0.0054187159235701493
aF0.11899775069212741
aF-0.15299117128409512
aF0.28750333351092738
aF0.056127187431129363
aF-0.13184137759847142
aF-0.16179890246611925
aF0.031899791911051717
aF0.021441626504222752
aF-0.16752063347030999
aF0.28719184204000098
aF0.21201661279734257
aF-0.022809439705228068
aF-0.18027940509453683
aF0.18850283510862728
aF-0.0015592672946554945
aF0.18236457261136577
aF0.0086198011778835532
aF-0.10662934548438528
aF0.19249535388095113
aF0.24018783209179928
aF-0.11931432394474022
aF0.052069783027071173
aF-0.05836822700906448
aF0.25289706383538818
aF0.023206752013712983
aF0.19866776314103529
aF0.23506263175454031
aF-0.10351250866484371
aF0.18885011185288836
aF-0.058714017521605377
aF0.24625340675937743
aa(lp21
F0.068010719528314709
aF0.25772904677229458
aF-0.073917316880784817
aF-0.070682697181260551
aF0.1112950067919137
aF0.34184475333264008
aF0.02946292968966209
aF-0.14119971000941389
aF0.052749987876246893
aF-0.079024716103748754
aF0.051582987112338233
aF0.033015292194304019
aF0.035309291185333339
aF-0.083386138139474278
aF-0.14632208505420025
aF0.14575287784212992
aF0.089725423385639436
aF-0.14039809215463589
aF0.17265662221861011
aF-0.20334826687266394
aF0.17248849832971119
aF0.12670695025602258
aF0.18351474350248861
aF-0.040037756336984621
aF0.11166207898148406
aF0.21821317036722535
aF0.3394071092598962
aF-0.0018797401068141287
aF-0.23389403641517778
aF0.020297984060983477
aF0.058178745261032901
aF0.26312989308927076
aF0.27920496451942539
aF-0.021981495033879032
aF0.029851052901046757
aF0.0011725044919559781
aF0.14611583673223463
aF-0.0033231506976715472
aF0.11929555136412222
aF-0.1435460188195283
aF-0.012485488666953417
aF0.29340450798784262
aa(lp22
F-0.016249281051517326
aF0.14287965076262024
aF0.12558979312257418
aF0.19154839738742283
aF0.24331822710689122
aF0.21909194279543939
aF-0.028362467542550413
aF-0.031092439402303777
aF0.13778581967817288
aF0.13921757433212753
aF0.22443502742045238
aF-0.19145712533620149
aF-0.14748490602716272
aF0.088280627144209992
aF0.21450674083706273
aF0.28280554920218631
aF0.13382501844393321
aF0.0044390371885837561
aF-0.16735326703980394
aF0.13761631731035598
aF0.22925002403123049
aF0.0086529748540199874
aF0.10208206223972734
aF0.24152151442182418
aF-0.20760898124860389
aF0.14822221594628177
aF-0.034458076314673028
aF-0.045808167666892011
aF-0.14678502068326238
aF0.049057361228167028
aF0.059797195241305869
aF0.20161620712934533
aF-0.078933670635311412
aF-0.21890318580883392
aF0.19301649978397578
aF0.11217673553660672
aF-0.13193034576843815
aF0.23030956996612117
aF-0.13799424256286463
aF0.042427924115223094
aF-0.1219060894613241
aF-0.063392186524500224
aa(lp23
F-0.24558969322232363
aF0.23230377977742397
aF0.29799884907707147
aF0.07885502680023411
aF-0.14820235010660146
aF0.008326034155162582
aF-0.059266411758760448
aF0.08307051514032833
aF0.086698152737457082
aF-0.047539170819172423
aF-0.10744577837084068
aF0.17150233470296133
aF-0.12823409680369782
aF-0.03928613435749459
aF-0.013821931607787073
aF-0.15984122780155491
aF0.089812122571650832
aF0.058155380905960577
aF0.3063758697389069
aF-0.052046119323831713
aF0.29024576920550077
aF0.097487262527847326
aF-0.1329623409430728
aF0.091396614383699684
aF0.12866849499362154
aF0.15659613230350866
aF-0.21951652594364068
aF0.054638839142742604
aF0.046756175018114771
aF0.25842518900284622
aF-0.14210309157956191
aF0.207057866532114
aF0.10947688281642724
aF-0.11335354184834592
aF0.09303299788243144
aF0.086453639535453222
aF0.071157180115218877
aF0.12153889416266968
aF0.10583220884307742
aF0.2473532215404553
aF0.086801861131405839
aF0.26642992643657876
aa(lp24
F0.09928396035135624
aF-0.060622836383348797
aF0.0027393688916853925
aF0.021364665413092176
aF0.1424907157964162
aF-0.21365610308682606
aF-0.097423372418140836
aF0.12904928542400096
aF-0.14010716769746354
aF-0.1841574703538201
aF0.024934317137812485
aF0.2227516315823973
aF0.068147609927287814
aF0.24341419670976081
aF0.16726728870242749
aF-0.096715912554580286
aF0.20385922201039189
aF-0.036622250643338516
aF0.15303463471000003
aF0.13579925252400601
aF-0.069274031939182426
aF-0.16723286084709668
aF0.22035590590850393
aF-0.15498666546773085
aF0.24174091797849478
aF0.18843804144343229
aF0.14680579557724657
aF0.23743352642907445
aF0.23158646853023654
aF0.17583347992845494
aF-0.047133265489658752
aF0.18523837403232221
aF-0.22541169480628037
aF-0.0073872647408487757
aF-0.00097794485715293079
aF0.082763048870853936
aF0.067336826623236715
aF0.067454057542222612
aF0.16689121781382829
aF0.26211022217107993
aF-0.1966419575088493
aF-0.061724089734908213
aa(lp25
F-0.15966274828356669
aF0.24799262019248386
aF0.078376214931593816
aF0.22415961461956418
aF-0.063291625548088579
aF-0.13384737090838866
aF0.22570700089035764
aF0.25553903126671157
aF-0.03843643356063535
aF0.002349714237779776
aF-0.1385775319812973
aF0.21546911456241713
aF-0.038204588133251907
aF0.075371386470273083
aF-0.15694331253142463
aF0.255925111902717
aF-0.10387673957057326
aF-0.010401970504151021
aF0.13059783060403626
aF0.1534240702062501
aF0.27908170685346056
aF0.0084764096007043394
aF0.14270647241338244
aF-0.083367722888923898
aF-0.0075558297407007343
aF-0.1304319896315565
aF0.0652927890854062
aF-0.025570767561913416
aF0.27988663031823763
aF-0.18020176573479324
aF-0.0087972737669814553
aF0.017118060972816176
aF0.28786851594071988
aF0.18894053300059765
aF-0.14892870293196919
aF0.14415875260559322
aF0.053115534381497603
aF0.2705396164207215
aF-0.035360528455377634
aF0.0014619264640268431
aF-0.11035714835040034
aF-0.11473309693479795
aa(lp26
F0.26731961028578349
aF0.061539804845246085
aF0.18069310321248849
aF0.10340165039062374
aF0.13866575966679384
aF-0.14932589740683941
aF0.23284855494957865
aF-0.035034054142313927
aF-0.10321974187020412
aF0.12587854436429799
aF-0.15521957392255939
aF0.20169472598302154
aF-0.03660363421623003
aF-0.045958321072923115
aF0.26925151773761374
aF-0.0056501475084516726
aF-0.071577962581289664
aF0.25759967126893124
aF-0.16011910462674542
aF0.25477337122569982
aF-0.089623477995594378
aF-0.10356115846759713
aF-0.082640499426812633
aF-0.056412537386170997
aF0.16155601704902439
aF-0.15279050472067354
aF-0.14132435719408293
aF0.20505042382178426
aF-0.06048166362042421
aF0.0017493252704219658
aF-0.075579361522166669
aF-0.12392271799704037
aF0.21381826893606293
aF0.072028153912196594
aF0.21754238928620059
aF0.048474221878076165
aF0.20480342195987461
aF0.069917912576579963
aF-0.14473921442193868
aF0.055996708063258668
aF0.31410299456574386
aF-0.14154205658293501
aa(lp27
F0.21228609350331434
aF0.24810302686668623
aF0.079794223884447638
aF0.0091680818951699831
aF0.31149376619147529
aF-0.19044063316882623
aF0.05069949411414381
aF0.025968323528739311
aF0.17950923070645927
aF0.058615404592058072
aF0.25106792662206534
aF-0.20259192021380698
aF-0.11622214058897667
aF0.12824900332572892
aF-0.19604452015511079
aF-0.061057989676465509
aF0.155211057389854
aF0.036485385833664605
aF-0.041984159949408899
aF0.32297982218088067
aF0.083228521400901173
aF0.043798937163941065
aF0.065844907419224954
aF-0.13515809485500488
aF0.16265161688769089
aF0.2487494075122548
aF0.14611246319832027
aF0.20427198633093918
aF0.18030833346035938
aF-0.081375239581320827
aF0.037616997819233257
aF-0.080063555976969944
aF-0.00086277049339625648
aF0.0091261113468706027
aF-0.0072035344533848853
aF-0.16392504495826768
aF-0.019744262938050112
aF0.14377577096270336
aF-0.0049298638939113057
aF-0.14182723545680115
aF0.29643615404769708
aF-0.14538069134861228
aa(lp28
F0.23387373573554948
aF-0.14023883807051227
aF-0.16473266077948884
aF0.15442652818427077
aF0.21867286307753533
aF0.054721594482540728
aF0.049832572185119738
aF0.073327687894830199
aF-0.050754897910102674
aF-0.17833896183744471
aF-0.02943739235901785
aF0.088153385596737785
aF0.19936610494130036
aF0.21963896681034023
aF0.1297197717730745
aF0.26575605934478125
aF0.083220744104985755
aF-0.048790112516872812
aF0.063888778483723346
aF-0.0924659365653627
aF0.1298803154296013
aF-0.10664898063619381
aF-0.207101955217701
aF0.21623870097473782
aF-0.038346661933975699
aF0.13608969210173569
aF0.098815370350173418
aF0.15935505498678854
aF0.21067153896843635
aF0.2523569535332989
aF0.18364426338344012
aF0.095617552431958991
aF0.14725561532710213
aF-0.23264245003341114
aF0.23636709795821506
aF0.18039194918213194
aF-0.098620775269929642
aF-0.095671328281147591
aF0.11468196741840776
aF-0.059777234662582918
aF-0.064050126415925293
aF-0.21835754464565599
aa(lp29
F0.34299678856450677
aF0.14756362095059022
aF0.07567910827047146
aF-0.12010624238252479
aF0.19581904807248826
aF-0.17162622038274541
aF0.25705195060372948
aF-0.03986537644674721
aF0.06934143060402792
aF-0.0010062353007653372
aF0.042988453591429804
aF0.2086937695568121
aF0.30259254190937307
aF0.16454988066445053
aF-0.13437154179319205
aF-0.14975202860828818
aF-0.055242288896971685
aF0.14960897519656333
aF0.19230202163874846
aF-0.024362408005229628
aF0.22289525327633392
aF0.072046717391406417
aF0.037087896580181516
aF0.0044010460523893026
aF0.22071450997675893
aF-0.11482309732877218
aF0.054596484792963765
aF-0.042473095840291963
aF0.20869802780761773
aF0.097829325852039115
aF0.1727721825791958
aF-0.1677359038575634
aF0.031825279324227844
aF0.16561436283307776
aF-0.19600838226476708
aF-0.029709262040726842
aF-0.094991942947815891
aF-0.10420227621984986
aF-0.065013980744451874
aF0.0095928005408096057
aF-0.18720167673179017
aF0.26752621653678682
aa(lp30
F-0.097960257105803514
aF-0.016391660662731962
aF0.1605078487300966
aF0.039250594846746777
aF0.23693475106575365
aF0.22297322436432465
aF-0.18392958430366979
aF0.23996576956132792
aF-0.19090586425820466
aF-0.18931905274328406
aF0.25930176572169145
aF0.20393225453463393
aF0.10572196015192217
aF0.11614963856028361
aF0.15870111152419883
aF0.0071558830901697285
aF-0.13483194629425937
aF-0.22752426441507828
aF-0.052455373581573907
aF0.18189988937173798
aF0.13253205445059291
aF0.24076235580809116
aF0.23389006651699887
aF-0.14405855153245575
aF0.21166859443112723
aF-0.091981041740613417
aF0.10265365107283257
aF0.03886197652055861
aF0.0047702664929408474
aF-0.056791469213520775
aF-0.038004985223299419
aF-0.0077037928382391483
aF-0.12242009846975492
aF0.016292553147793088
aF-0.14730716632646157
aF0.038989143344130159
aF0.23379195346433623
aF-0.038964458835105069
aF0.15820809430732591
aF0.20991994978617326
aF0.20427761666733493
aF-0.04724943366683905
aa(lp31
F-0.12323823424721908
aF-0.10226918953773473
aF0.1174757597812499
aF0.17403868170716899
aF0.15935680479882147
aF-0.14968423414975249
aF0.20463426262627535
aF0.036471665758428577
aF0.18754399590027393
aF0.20796714566441146
aF0.041159272950288872
aF0.23553445289198544
aF0.10075676712237654
aF0.13831518157362427
aF0.080455411503463525
aF0.23786748076532549
aF0.14124947898586604
aF-0.18951632008751612
aF-0.2119514725779387
aF0.031139882499465105
aF-0.096005217966383699
aF-0.10926627639417015
aF-0.21195617802013419
aF0.038131194324433258
aF-0.061031053260798551
aF-0.0090998777782920186
aF-0.18411609710736362
aF0.20315598331258819
aF-0.194949392670108
aF0.26650139073061158
aF0.23959137310295858
aF0.11957147197108665
aF0.068428767021906353
aF0.0029088952701452338
aF0.055313851364114104
aF0.20054405504537132
aF0.2393523081522777
aF0.007744646949552827
aF0.22187440377641857
aF0.13517784512268971
aF-0.091880507570306344
aF0.032575930999065528
aa(lp32
F-0.15576449328446496
aF-0.17968931582886513
aF-0.15702043225922654
aF0.27311060749431054
aF-0.02977798121933883
aF0.18280153617173098
aF0.061779303915559233
aF-0.12166321077441715
aF-0.071898490781655902
aF0.031188612360567115
aF0.0050135227335699386
aF0.010428252674530056
aF-0.11571704052577525
aF0.0015809685915646179
aF-0.077818201018394761
aF0.017175747043255356
aF-0.028453492787075631
aF0.07307938174074749
aF0.21469629757826217
aF0.1502495532002848
aF-0.19610436184456659
aF-0.17475397247946725
aF0.10986715645106261
aF-0.040680922513685588
aF0.19597498789350334
aF0.16018401822639075
aF0.31896500345710876
aF0.23613877815163956
aF-0.043498495674594025
aF0.10409625943443523
aF-0.14148030597114586
aF-0.020975729640259243
aF0.32744732268111731
aF0.14716318187188457
aF-0.0038365904258566741
aF0.10116456753132601
aF0.27614565246365647
aF-0.045518889476460773
aF-0.026852237251333271
aF0.22603527877360335
aF0.2231156921731603
aF0.1841790032920686
aa(lp33
F0.23998628450912762
aF0.2047536346264075
aF0.19025042698934541
aF0.051014063340601636
aF0.14185396122533156
aF0.026400030302009714
aF-0.016894718400062105
aF-0.023703011172525455
aF-0.1157987444213929
aF-0.093137916920212852
aF0.30178486176984981
aF0.0099454457728998785
aF-0.078723890324337298
aF-0.12884025920300804
aF-0.16256854229665677
aF0.27515182802412103
aF-0.15768054739033269
aF0.1750720705617414
aF0.25781609016923068
aF0.24104479275193849
aF-0.19335949702602528
aF-0.018023554114515165
aF0.15822465884994399
aF-0.11175780378942196
aF-0.061991877004467351
aF-0.13176160976545023
aF0.25957359845148509
aF0.19815003019063981
aF0.24434302182934226
aF-0.12161410540447808
aF0.027054225239945752
aF0.035418891119559787
aF0.1559173017196375
aF-0.12925691835972125
aF0.032682551290825812
aF-0.078252640144369029
aF0.18416394924650462
aF0.014946852375573963
aF0.083005536389250914
aF-0.044452923414425069
aF0.21745708955418253
aF0.060626606427487323
aa(lp34
F0.21931262198269957
aF-0.021603187491581393
aF0.25316577296121229
aF0.24145107335565974
aF0.044943489552027933
aF-0.061077279213194162
aF-0.0066903105052957294
aF0.075580863798978756
aF0.26902708072834175
aF0.16269568868472231
aF0.18727290154214493
aF-0.1500023140536613
aF-0.053094284456134851
aF0.12906503973359176
aF0.1929303572139269
aF0.085779768651187818
aF-0.15814319581308725
aF0.18487814495984572
aF0.2235925087034536
aF-0.078515557233963695
aF0.13850730373589112
aF-0.070146493407975408
aF0.20817803149287234
aF-0.12883976141668957
aF-0.015132350891905521
aF0.24148053435939409
aF-0.088989221616372821
aF-0.01918859297173351
aF-0.067031864460446025
aF-0.20278153221550341
aF-0.19612323892245825
aF0.017117295401600948
aF-0.072609909723872545
aF0.23169507282534532
aF-0.046478763267448479
aF-0.1966138616345337
aF0.20964345129016654
aF0.17529220229882972
aF0.1131637278691799
aF0.17933796301756341
aF-0.16311534917973794
aF-0.021144084957440863
aa(lp35
F0.26695449502274982
aF0.17837396920749229
aF-0.093205654161512941
aF0.17398419897593989
aF0.052169056097566571
aF-0.1692265143747966
aF-0.16037436198715865
aF-0.016792264100793909
aF0.23920374072414083
aF0.07407776775005788
aF0.19074245735315423
aF0.043753108205638658
aF-0.10721301744605667
aF-0.025375478333270533
aF-0.041238967899081568
aF-0.17161607096280623
aF0.050105092908187883
aF0.20567492889258207
aF0.02092704243342439
aF-0.12970122965565248
aF0.28281649586966345
aF0.10087755893437014
aF-0.21650561036703439
aF0.12047031737858176
aF-0.093790652467594368
aF-0.12416450634996724
aF0.062734441879160024
aF0.10949102189560468
aF-0.036567456545244514
aF0.0046371464631349826
aF0.13713427358762736
aF-0.14957992680641605
aF0.32813621185117386
aF-0.17881019394104478
aF0.069240576072635798
aF0.074868728186135991
aF0.28527956787875142
aF0.078349309572658052
aF0.020614678148083213
aF0.046903257396897963
aF0.12998005047952707
aF0.32080795041327664
aa(lp36
F-0.054517571732775147
aF-0.18805032472349262
aF0.1991157993709419
aF-0.061414755668901651
aF0.1691362525685744
aF0.1084085648589265
aF0.17516026732835774
aF0.16740009794913702
aF-0.041255749814383201
aF-0.18319378443731515
aF0.076737964862825109
aF0.1626322861972937
aF-0.10544720002686882
aF0.17151784221911318
aF0.01133509470151252
aF0.12364228939618133
aF0.12660211162828419
aF0.20387544907908431
aF-0.17201991417238013
aF0.19556916900458174
aF0.052512978844689535
aF-0.055454688293685002
aF-0.2195727194522443
aF-0.10489037678407083
aF-0.19184107184742702
aF0.23964307323342307
aF0.078330672428059814
aF0.26483872794081131
aF0.070014142149465941
aF-0.085877368497247072
aF0.18341280827167691
aF-0.10487882632749998
aF-0.018006228434151755
aF0.17817424545977431
aF0.22838553739578996
aF-0.047222336235098653
aF-0.18848332501330889
aF-0.014462131315338389
aF0.25057965700660945
aF0.19278001804987385
aF0.23521331014545582
aF0.015879114853649335
aa(lp37
F0.28572487434693106
aF0.041137463331296108
aF0.029127521458977658
aF0.23957853602071388
aF0.046306507429026089
aF0.18164813113662484
aF0.14561037155299789
aF-0.15496584499353772
aF0.063908324808174974
aF0.18713705167579517
aF0.068761436554838073
aF-0.034928205211747033
aF-0.14326457534660009
aF0.1141779601580389
aF-0.1063887067896387
aF0.086495680601982622
aF-0.0021915979233005237
aF0.10506346541226877
aF-0.059364816381350619
aF-0.18469790766740313
aF0.20520477641802426
aF-0.060641723512149151
aF0.25390632851453687
aF-0.088334660231700529
aF0.2871271047544407
aF0.25317515027959547
aF-0.18353938540570952
aF0.086780848561438653
aF-0.063025683602843427
aF0.18738820159046699
aF0.1268456593165723
aF0.2715957816083589
aF-0.13820087148929022
aF0.07410507727364754
aF0.14058928310431193
aF-0.2218212451817877
aF-0.24103840823867348
aF0.170113527527292
aF-0.04203107720202387
aF-0.027118797592406797
aF0.062943463320121545
aF0.10075719177112379
aa(lp38
F0.12537756813707823
aF0.30030777778473455
aF-0.037649988999104281
aF0.14501972797931134
aF0.073428498760834807
aF0.066421347956238802
aF-0.053433587173555654
aF0.14244906378938979
aF-0.097706409751761147
aF-0.19066653418985516
aF0.14794731909361994
aF-0.018904417926143027
aF0.031384864657010375
aF0.092351702289746498
aF-0.13450570790546895
aF-0.085382133077190905
aF0.027913922220196119
aF0.28794570874800152
aF-0.092448514939250895
aF0.23728319548342
aF0.048644196422680572
aF-0.16598036450934733
aF0.16179494394103752
aF0.035094384007978763
aF0.25386389994083286
aF0.0076388614642926254
aF-0.18801983207874581
aF0.096202132097788606
aF0.21766108106089829
aF-0.062977106684082892
aF-0.018690938616011118
aF-0.20755940081073382
aF0.081340265570533338
aF0.23147071721381268
aF0.27284090576166398
aF0.14300654247731279
aF0.24882211974701463
aF0.11419373405217691
aF0.20342112062200463
aF0.04462367998442613
aF-0.21087664564849681
aF-0.089571529339794925
aa(lp39
F-0.096924225506844222
aF0.17454912061183786
aF-0.19259483952553594
aF0.025437771401808123
aF-0.053363801558327949
aF0.20616283982270209
aF0.064322917007702068
aF0.11602445154268179
aF-0.17693105674500675
aF-0.077271265607791892
aF0.25993324759439207
aF0.10340056214405483
aF0.090332893581008517
aF0.18703420197317949
aF0.1626260568545557
aF-0.18594240523492428
aF0.2644018303495046
aF0.090261663604682102
aF0.0087669473869657413
aF0.12485294444097063
aF-0.038331261245090703
aF0.25867509250259424
aF0.13974441771027571
aF0.12088314654050267
aF-0.12382824283454696
aF0.26126188664005584
aF0.012106879028264888
aF0.22657482045575772
aF-0.19851530576774509
aF-0.16288691553660317
aF-0.12370638664560413
aF-0.10699676492642285
aF-0.033943101839842268
aF0.1017200279529764
aF-0.061258732535703318
aF0.25628949337659218
aF0.21343313723997939
aF0.22112367858896598
aF-0.099349192346464499
aF0.11498880423466004
aF0.044064596459686592
aF-0.12378509644322665
aa(lp40
F-0.041126960643738331
aF0.053870376195251535
aF0.045887595176013811
aF-0.17380266864770394
aF0.29906595727499158
aF-0.15265937504689306
aF0.12790929582856181
aF0.17965140283621114
aF0.10926805309120034
aF0.23233679116642775
aF0.082447967987155285
aF0.20150422234484075
aF-0.20033420919462394
aF-0.21896288583239568
aF0.12828653174055807
aF0.085790191959200901
aF0.13662297510534663
aF0.1682949192581587
aF-0.0019378695754073004
aF0.14148031910886041
aF0.04419703263708695
aF0.11167876525172106
aF-0.090916369376028511
aF0.31936247274695723
aF0.020627989760320296
aF0.19510327734265026
aF0.17230120306764871
aF-0.11214633567478913
aF-0.18153400789322591
aF-0.21350848496093724
aF0.010000694832340139
aF0.031444742037350717
aF-0.081116233881432395
aF0.093048569002344123
aF-0.041479473880627261
aF0.13314325474321947
aF0.12017777847657062
aF0.23554212330629687
aF0.2924997361240198
aF-0.14682275467022601
aF-0.036109697680480113
aF0.10673491400977722
aa(lp41
F-0.026755711585558981
aF0.08803276620318877
aF-0.063505106758874899
aF-0.11977165816281012
aF-0.1428243261236502
aF-0.056596719964393298
aF-0.0066583569423511301
aF0.16906984850875767
aF-0.089223122271197053
aF0.27053074380026443
aF-0.12980933163048974
aF-0.055920060481728352
aF0.13531943337004254
aF-0.042386866263403399
aF0.20913068652743538
aF0.05457635459277535
aF0.077427667048641124
aF0.069142386500527855
aF-0.077704454916446786
aF-0.19397051790952338
aF0.31828268367715551
aF0.073821933186203142
aF0.3237530062033746
aF-0.10476172214972046
aF-0.02391451916393323
aF-0.2134437410529772
aF0.087549464826245496
aF0.28169115524023891
aF0.1492172198791053
aF0.040247462290691087
aF0.12464626225740326
aF0.27244463038318295
aF0.045592381205327756
aF0.25307405929624699
aF0.20091598000790423
aF0.23093162231921108
aF-0.041675105096588103
aF-0.001577124013949394
aF0.11184806155219922
aF-0.11231356965602539
aF0.11010226203046007
aF-0.17433817054777076
aa(lp42
F0.066694048562136787
aF0.1878822219465125
aF-0.073576642418778843
aF0.27348405166934364
aF0.11671260312218823
aF-0.17016588846789554
aF0.30883548445053965
aF-0.006871350468353985
aF0.21265445530319171
aF-0.085165962813601434
aF0.26398388353746399
aF0.14073486093397294
aF-0.10547910759472394
aF0.045845849005976172
aF0.0067226379477102211
aF-0.20888335727983404
aF-0.16072986774414769
aF-0.10609365367828426
aF0.0063031467008499223
aF0.0089243013586466254
aF0.061318833657162106
aF0.034293831959097798
aF-0.086306772538568513
aF0.11250184459403854
aF-0.18464694406171833
aF0.28418319101054396
aF0.19854578505417347
aF-0.11936600361050143
aF-0.051350803166361744
aF0.22312970254691594
aF0.06123090623273348
aF0.16092772176405332
aF-0.068196629822538726
aF0.17126612382369338
aF-0.049234362979583134
aF0.11432472670379455
aF0.26380749848726043
aF0.062366680988959595
aF0.17452278146408146
aF0.15297659303630515
aF0.13435480219934373
aF-0.18827913252148468
aa(lp43
F0.033498435333010827
aF0.29233458051647754
aF0.19560007456713732
aF0.15168707538506987
aF0.086826408031455721
aF0.17101578611160428
aF0.095091430081635342
aF-0.10787390716971795
aF0.11484652311386348
aF0.096699329695558375
aF0.21936617501355335
aF-0.15973862948839815
aF0.17601451840166732
aF-0.20072687808519799
aF0.26359341926328889
aF-0.16285051022692512
aF-0.19161250370467314
aF-0.094232300548584683
aF-0.13509841222633329
aF0.14111759948569044
aF-0.023730440773172781
aF0.19008425742637403
aF0.22026434940370862
aF0.27147253406312249
aF0.14761085259631915
aF-0.19664352090268114
aF-0.12594395632853103
aF-0.12555875430705399
aF-0.037088054316101335
aF0.14396358427274403
aF0.07207376537924845
aF-0.045394469028645135
aF-0.10732648793381451
aF0.23416382140062075
aF-0.046329691276503056
aF-0.057355805449460985
aF0.14498782570321117
aF0.15325038155135587
aF0.12875473916044758
aF0.13800324738819705
aF0.094366875360846106
aF-0.079370725720327148
aa(lp44
F-0.067996327214660868
aF0.076924616816996833
aF-0.069898593677993531
aF0.30229024355957013
aF-0.060345651740589021
aF-0.060739273645378282
aF-0.10099219814432175
aF0.17893755528746025
aF-0.032616091419562662
aF-0.041226198786006592
aF0.27457388176437786
aF0.175951400964652
aF-0.059915342591657872
aF-0.15545881440850851
aF0.14033825780697001
aF-0.0063570262143674595
aF0.34973005313742916
aF0.21979483513046644
aF0.29375648425240464
aF0.21252514804808173
aF-0.066082076539170378
aF-0.052112071023878381
aF0.1336411171721153
aF-0.0057000880440984149
aF0.019810289200362687
aF-0.080080996856172829
aF0.059752322328350503
aF-0.16666625786360711
aF0.066485916342809162
aF0.32450373048566533
aF0.19093497799550757
aF-0.14527754497079007
aF0.13593989761554279
aF0.087565206795172004
aF-0.098720021764233973
aF0.14512016984094955
aF0.033681445992433008
aF0.10270284093304574
aF-0.18967079708432427
aF-0.013486561609230641
aF0.17025819805872505
aF-0.14410278169971819
aa(lp45
F0.13568533766283328
aF-0.21104141591736481
aF0.053790034133688082
aF0.17467177160788105
aF-0.04151972250440663
aF0.20673117011695011
aF0.18037820401799579
aF-0.024729567602801313
aF-0.15174451178215526
aF0.20884129198990348
aF-0.087546059421214031
aF0.047077726617485022
aF0.23488973609775479
aF-0.19156599595971999
aF0.0044076196162632373
aF0.022639117469875177
aF0.12113487018838544
aF0.16634699205681058
aF0.193174993545775
aF-0.13923681153309481
aF0.19532270043864677
aF-0.14345593435226331
aF0.149409694304553
aF0.25000233132409339
aF-0.081954480041582178
aF-0.021266336218438812
aF0.25195847954654732
aF0.18104578575987318
aF0.18588779475067288
aF0.17341370660447178
aF-0.22074396080075995
aF-0.012830367913419394
aF-0.18158776705408985
aF0.18212772573071459
aF-0.10063850773550539
aF0.19469792573524422
aF-0.016489395354426437
aF0.01955440643822403
aF0.18123353400546438
aF0.19385481627929596
aF-0.016492395753998031
aF-0.10968120770097856
aa(lp46
F-0.1150976940416668
aF-0.086054592502037466
aF0.05992163722857545
aF-0.079530174873203685
aF-0.079221995143405582
aF0.1821870483016538
aF0.21388950136493609
aF0.10871028595768578
aF0.23112584251537582
aF-0.081589505662007802
aF0.27771285685678909
aF0.25684860073746257
aF0.25981566783351862
aF0.081077169720198378
aF-0.16261588390104448
aF0.13225120758940317
aF-0.11891143880225501
aF-0.12606641542714375
aF-0.016215465703386694
aF-0.069189084313263607
aF-0.057817807629594632
aF-0.066170348944851784
aF0.17533599044614315
aF0.31875209064847559
aF-0.022198324946204929
aF0.17293998560299262
aF-0.17800610044546106
aF0.11391441869808686
aF0.19544015119105262
aF-0.17815942795538925
aF-0.13339128115077789
aF-0.030344673809708574
aF0.031242025117220993
aF0.04082203746719696
aF0.27591266883007892
aF0.17421239937241625
aF-0.044047961681454931
aF-0.092683597864575334
aF0.26637693380550642
aF-0.020323195452186409
aF0.13208647547656427
aF-0.062294282210845771
aa(lp47
F-0.1158777279108609
aF-0.12432894707802325
aF0.22366083470931278
aF0.11065336527315157
aF0.04717388382832953
aF0.14675600528374794
aF0.06543732289661576
aF0.10297433142403425
aF0.18128387679094812
aF-0.12057169823243588
aF-0.069576425630228353
aF0.16577918351661847
aF0.35044862474590915
aF-0.1707215356593782
aF0.038089368449726616
aF0.19031433059789027
aF-0.16006780991215916
aF0.11154329737721476
aF-0.20634679107833304
aF0.11680978768120767
aF0.09551390754232221
aF0.11022517231352015
aF-0.15784522726878311
aF-0.00094816262916133382
aF0.083089208467685416
aF-0.14199665193880381
aF-0.079404499058553776
aF0.10580329387329317
aF-0.15697538000822897
aF0.088063491262315288
aF0.26470693300037701
aF0.056832862313212267
aF0.086043227557556723
aF0.031191405035435969
aF-0.21816998115470981
aF0.052075426763557052
aF0.23992255022158401
aF0.22021341389260182
aF-0.022001332295233111
aF0.27425801868298971
aF0.22790155698318651
aF0.13311873377578837
aa(lp48
F-0.16461962766634314
aF-0.050700623014170075
aF-0.16028730906622851
aF0.24917296877798176
aF0.28356319524232321
aF-0.16355819779174316
aF0.25382865417690914
aF-0.19332612240504574
aF0.02082209559446873
aF0.17469984783273246
aF0.14234069123537801
aF0.25298502237270348
aF0.1338548673156284
aF0.0061827669368028706
aF0.2753791917152737
aF0.0024500607008840583
aF0.23498796611176775
aF0.22433151302262966
aF-0.013659536291424272
aF0.13924079751140989
aF0.13912511630595162
aF0.077830807029628135
aF0.095365731590428979
aF-0.023559963804204099
aF-0.11749575289027217
aF0.052077244196434599
aF0.072836012847564011
aF0.11357713791811218
aF-0.083165084610098056
aF-0.21585833636627885
aF-0.1950581053503824
aF-0.041568654754170667
aF0.13331380589344202
aF0.017691932502388111
aF0.044714936508972264
aF0.19153227020254546
aF-0.12905786473677952
aF-0.064502375967573342
aF-0.067606711780967679
aF0.25409286052756824
aF0.13900400123242773
aF-0.10170343826402259
aa(lp49
F0.23789414919874247
aF0.023749530563891421
aF0.17323665593880974
aF0.20304868358429459
aF-0.18135631948011158
aF-0.078346451587923541
aF-0.17396581673674422
aF-0.2018703081735449
aF0.0815322770835539
aF0.1522162518219515
aF-0.18410130205423306
aF0.14532904035128033
aF0.024283795682986411
aF-0.054180390114402815
aF-0.11672285854918885
aF0.2307984453411118
aF-0.14377984882227915
aF0.0095319328072789537
aF-0.057429625658660499
aF0.23459837334099101
aF0.15429029935258326
aF-0.035844763111649629
aF0.060295814501046763
aF0.17135137575335554
aF-0.052535704903365621
aF-0.032429548911008278
aF-0.10742905565833114
aF0.091067685417388244
aF-0.091616367709658822
aF-0.053758860782352175
aF-0.16689310746003824
aF0.27392613151458595
aF0.24751772257327156
aF0.21786308784174996
aF0.10416326225640808
aF0.0091527649466979378
aF-0.0031538680527629036
aF0.2803249066219074
aF0.27853264381326159
aF0.1372015780710879
aF0.18969945649094319
aF-0.02570492921640595
aa(lp50
F-0.013245894059229288
aF-0.11979798621490675
aF-0.030899149601685914
aF0.14504571089752058
aF0.021490436397684023
aF0.22275594176629473
aF-0.10936554785996133
aF0.1376808157820486
aF0.18903539942760855
aF0.24017003950236629
aF0.07662692837971162
aF0.23403098792286764
aF0.081008703085114486
aF-0.1457766480381705
aF-0.13272739821078786
aF-0.13405022137630324
aF0.10770163779982353
aF0.22714294539141547
aF0.17707977593174107
aF-0.17104548078730644
aF0.12815185411659705
aF-0.13596923373634523
aF-0.14238606563404835
aF0.10423478155936454
aF0.075214107540593669
aF0.21139637241669629
aF-0.14316264015439803
aF0.10418454658113524
aF0.14161059964775793
aF0.023426419790306692
aF0.029247226819786438
aF0.20803626162105338
aF-0.040074942567412446
aF0.23102464144730714
aF-0.22468240341610685
aF0.23367026173411731
aF0.21577239662176706
aF-0.19852568621873462
aF0.24626773719996373
aF0.016006883110052612
aF-0.10355050382883198
aF0.10523962574781104
aa(lp51
F-0.086535945107887258
aF0.29515935620157585
aF0.079268115340309572
aF0.17770925790921149
aF0.0098559422179196627
aF0.068284589396795492
aF-0.063193252346721671
aF-0.076831386554429296
aF0.049584166722696804
aF0.018016780960163174
aF-0.18587908894700395
aF0.28550407476617679
aF0.036187064541662393
aF0.21768567180320017
aF0.25474846367221654
aF-0.052298224531935694
aF-0.0034285248161465679
aF0.061476560341916522
aF-0.14586384609869021
aF-0.1630597349173481
aF-0.12141446400715426
aF0.27485999801369515
aF0.073721314756173287
aF0.020056936895407385
aF-0.16806157814781392
aF-0.064349362928121642
aF0.0090433986209127269
aF0.20792745221550052
aF0.063248881423741077
aF0.12648741542342162
aF0.12498461240415369
aF-0.090608254490874021
aF0.22821142436496822
aF0.28597433262566951
aF0.080469395594383986
aF0.037121162974504983
aF-0.19967108599931016
aF0.20355720608440062
aF-0.1317389456450121
aF0.1698162352198582
aF0.0092235422810026755
aF0.28475570779618686
aa(lp52
F0.095126030974567177
aF0.17820219411252841
aF-0.16953057820539233
aF-0.19319245981337876
aF0.24202375493066094
aF0.28707176822249963
aF0.14443282492068066
aF0.21148657415992683
aF0.0067176297351046006
aF0.25959053034683743
aF-0.066318266476926888
aF0.14262679756363075
aF-0.15015658065941564
aF0.046748729500301484
aF-0.025010028195775691
aF0.12281870889659077
aF0.13603477052997365
aF0.10895217746309828
aF0.052384394118864176
aF0.073908499094273883
aF-0.18770904691549242
aF0.082448295139340669
aF-0.20936785242998929
aF0.067836486541742597
aF-0.076871528253374441
aF0.29481973867865091
aF-0.19401280033067472
aF0.20506846168680093
aF0.16189656166542379
aF0.21003749049605683
aF0.26407356854662939
aF-0.12148077875388903
aF-0.11436956616869576
aF-0.1238865526004021
aF-0.12110175798632943
aF0.035506725695943826
aF0.20286912338494814
aF-0.06020320881922208
aF-0.0079187595308312739
aF0.027016901586866447
aF0.0089466927927688913
aF0.086848966925775484
aa(lp53
F0.27040258619547464
aF-0.069464591304317327
aF0.14413983037970107
aF0.19694767782113154
aF0.14337357587528438
aF0.18736030776363977
aF0.15489177109847457
aF-0.13086791774950723
aF-0.01026808471237636
aF0.047273174296008615
aF-0.14516215941118576
aF-0.19544873620513811
aF-0.070137792356195564
aF0.061499712216419686
aF-0.0047184550996710673
aF0.18379871793248478
aF0.080029414711421568
aF0.18225034501463078
aF-0.13469620847303476
aF0.068942837613172811
aF-0.17421816575215654
aF-0.066697306083868077
aF0.16630646436895288
aF0.23437230141818266
aF0.020279780359158416
aF-0.18122153498281138
aF-0.13742390288807757
aF0.21335210532049331
aF0.2265724075663467
aF0.07073449262517402
aF-0.16881241998429752
aF0.27032933989378088
aF-0.018083672253623069
aF0.25111618133258301
aF0.073396157586850072
aF0.16233188694339304
aF0.1343794590214796
aF-0.005517765512984143
aF-0.19715458254847804
aF-0.10196316615392445
aF-0.082779163612705861
aF0.23830366385245971
aa(lp54
F0.014132740659974071
aF0.26742851492468112
aF-0.034300218409250162
aF0.15352181970418
aF-0.11885059021409607
aF0.28735204581739832
aF0.15997201112988071
aF0.057804856236575844
aF0.31356280010643139
aF-0.16896092245559666
aF0.0030200948244232589
aF0.20308180298805234
aF-0.006602758525257167
aF0.15818038526759295
aF0.26523361794317396
aF-0.010912002306167111
aF0.18438306307500621
aF-0.20576907530037603
aF-0.060194031329381906
aF0.29630897799712197
aF0.047732296571521955
aF-0.018043195166902996
aF0.19974090958915292
aF0.0068826367413512288
aF0.14979217442963155
aF0.1103078502874217
aF-0.12736900023163317
aF0.065530979373495543
aF0.18325785954206228
aF0.15212135077926828
aF-0.17312636422259048
aF-0.10239169559038484
aF0.17350355594065839
aF0.083335598466112465
aF0.14029079580972845
aF-0.060081268556773537
aF-0.17864002455086977
aF-0.19663553665679145
aF-0.046754587927508737
aF-0.01912987294046864
aF-0.083075245509704021
aF-0.10616792752372463
aa(lp55
F-0.043307944462702863
aF0.079081946845848558
aF0.1181464839612183
aF0.03685030117410288
aF-0.17751463914833246
aF-0.0071094044212739712
aF-0.14739760455813203
aF0.17376869951401464
aF-0.044638141420984115
aF-0.0022458324670990583
aF-0.0049918205895352974
aF0.014699008899731475
aF-0.13570737685659151
aF0.331578450320339
aF0.30320340066246354
aF0.35378908746520532
aF0.12504046525521689
aF-0.089120341979593953
aF0.0067015599053697559
aF-0.092210920303839095
aF-0.043038434608757059
aF0.057951190640586597
aF-0.18299043427510944
aF0.069412676301782245
aF0.071143890737186119
aF0.047795030686631747
aF-0.12292754206943553
aF-0.091853862960059068
aF-0.037768518141678475
aF0.15903944442843007
aF0.11442347196661443
aF-0.078532519710919721
aF-0.12992166770905619
aF-0.023991035257837572
aF0.32245610360038229
aF-0.004219280099428983
aF0.1416168658461549
aF0.27102670097937298
aF0.025645160896690975
aF0.00052884138545997855
aF0.28022699675153573
aF0.31418349065284973
aa(lp56
F0.30231624839812654
aF-0.16730741833048401
aF-0.069349078332893346
aF0.26780668663011259
aF-0.15329723666864228
aF-0.093931708547562914
aF0.29787900658578703
aF0.34505745773656393
aF-0.10590218128682834
aF0.15133254547982822
aF0.058906566165635145
aF0.02471803711337494
aF-0.099793215963047827
aF-0.033121795680383044
aF0.21186974305862757
aF-0.040331249217725719
aF-0.18465536317306028
aF0.015618502536507362
aF0.064914137433106811
aF0.070280532115360533
aF0.12878897951007051
aF0.081585947479616047
aF0.24532914064391881
aF0.0087529120007699135
aF0.10736857128704949
aF-0.012881339758955073
aF-0.074485476648423518
aF0.085216841325722534
aF0.19552476815187481
aF0.1818614177058944
aF-0.026479144314017388
aF0.034978901337692249
aF0.12866283880338389
aF-0.17121401234093775
aF0.11460091743418419
aF0.11407077796537764
aF0.15594354431745927
aF-0.23085861299514362
aF0.29379749075836681
aF0.005569936275413561
aF-0.038672197135457755
aF0.077398374728904026
aa(lp57
F0.28851547563227814
aF0.15579260301598408
aF0.083711286244334659
aF0.17266397226084532
aF-0.041698573046998921
aF0.27521961393839944
aF0.069673170164536807
aF0.12932624665033812
aF-0.15219408077582885
aF0.18091417202199891
aF0.13563509994936435
aF-0.041092159451173449
aF0.16336306147643712
aF-0.19030308701381449
aF0.2904776026115663
aF0.13666723675753104
aF-0.018551810133129037
aF0.148442955789471
aF0.29140092485198343
aF0.016821929879206929
aF-0.20521046989473143
aF-0.0744122833441382
aF0.0044701954539253649
aF0.065976433846835658
aF0.067099539749825618
aF0.084775265148352236
aF0.036059144614368224
aF-0.027902796320959482
aF0.18292285421876223
aF0.083920794857540143
aF0.057543762408089595
aF-0.028922511954174782
aF-0.17141435371488528
aF-0.1874946895167646
aF-0.0089289490961148681
aF0.2859396190534409
aF-0.18930472678127844
aF0.2895939260624078
aF-0.14739229419983846
aF-0.052203204101657255
aF0.016693826513896209
aF-0.076427957169292252
aa(lp58
F0.06090929139441105
aF0.059629171152327826
aF0.042105502993797936
aF0.15006681458014129
aF-0.03360095452653785
aF-0.019358065577488235
aF0.24380222675927007
aF-0.11325536884011994
aF0.26221745675555358
aF0.12736171856340736
aF0.16305837518409197
aF-0.12767855792569979
aF0.35482513976467223
aF-0.065134251383702657
aF-0.11903384439818582
aF-0.13001565798820286
aF0.13048091115771185
aF0.29753044423375308
aF-0.091536366872862943
aF0.037154981208967361
aF-0.11169447570193033
aF0.13549396096163135
aF-0.0072903753129539457
aF-0.16961172004128527
aF0.11198125111514555
aF-0.098131822404968316
aF0.13814500550728614
aF-0.012439022103785391
aF0.1898312530629192
aF-0.091084754530110931
aF0.18750469732431174
aF0.24895654568431042
aF-0.17461541393707872
aF-0.16589460561399619
aF0.27132840882596282
aF-0.088312913604584806
aF-0.036585404782076759
aF0.031414743804978391
aF-0.044554037221045263
aF0.27201444844866463
aF0.075365452233918287
aF0.15598490883509833
aa(lp59
F0.11404525561388937
aF0.13669178790732445
aF0.12916790504292228
aF-0.028541453265151111
aF0.2656028475726569
aF0.11113816730551412
aF0.23198020191350283
aF0.21471727142627206
aF-0.03618578159560365
aF0.1318736587136565
aF-0.1733265501007682
aF-0.15772088787275826
aF-0.10624040212782776
aF-0.034522977927904916
aF-0.14326335301709645
aF0.1607837204474297
aF0.094759703629090059
aF-0.012069633488325706
aF-0.131519978223086
aF0.0080388857943178155
aF-0.10802179151912109
aF0.138982485283525
aF0.1535177793209892
aF0.14172524937130318
aF0.33720964237643147
aF0.084194683526537056
aF0.08246705745788957
aF-0.18507342098078308
aF-0.040114372988213187
aF0.025776822373089762
aF-0.19984721096448504
aF-0.0016270570803421102
aF-0.17296423736466407
aF-0.14455413076822896
aF0.26087175718110434
aF0.32474674024598571
aF0.054817032258147665
aF0.066229464140683536
aF0.14659536960595099
aF0.049745481119582595
aF0.26249895988076122
aF0.075767032099390355
aa(lp60
F-0.14116153246492871
aF-0.19033928669726891
aF0.20736563345586151
aF-0.081994641742372018
aF-0.040330992769331213
aF0.055097053656247993
aF-0.10333413107053903
aF0.049982377874834512
aF0.15460756295679093
aF0.16781169771540189
aF0.077957641860036175
aF-0.14602519598227334
aF-0.12382082825479317
aF0.17383824448734661
aF0.17207557239165139
aF-0.053003906630544675
aF0.20177782354620769
aF-0.20155967558625057
aF0.1487259617710967
aF0.11802232938455941
aF0.29637365087448869
aF-0.18097213823049216
aF0.19904479886399831
aF0.20485111022326496
aF-0.042796913477665517
aF0.28720037291178507
aF0.052480673433506334
aF-0.056790269685663419
aF0.22213712243759789
aF0.013109633391773894
aF0.3217587411305376
aF0.19147861075491177
aF-0.039218423132809876
aF0.18452589170993705
aF0.069828289909109276
aF-0.0005006956699171375
aF0.13421596844682018
aF0.11939499957328298
aF-0.12544633294286142
aF-0.12500239332187091
aF-0.094098046421720302
aF-0.079571660044718953
aa(lp61
F-0.17850706728643509
aF-0.047964857362377183
aF-0.10396890131290816
aF0.033996819085435205
aF-0.022770026065592499
aF0.12895103837938129
aF-0.069748546893246957
aF-0.075611310683241353
aF0.19360107341031207
aF0.26363734661732718
aF0.11239039962884115
aF-0.21263116635381121
aF0.31393986252268008
aF0.14797254844879479
aF0.19273237566388965
aF0.26559211043117176
aF0.20169462702241023
aF-0.15871864340544486
aF0.20180577498078872
aF-0.061567618674918528
aF0.11873237424117386
aF0.16652940475653977
aF0.14516972891955526
aF0.1339643607748271
aF0.03245339394522772
aF0.040068510305872461
aF-0.078385845003147506
aF-0.05070073848791689
aF0.021851428110978961
aF0.081107178424306522
aF0.17860521194309711
aF-0.19905977538784903
aF0.053257368849166813
aF-0.12753595149875691
aF0.19629789536542377
aF-0.040237861167394945
aF0.25388509956483196
aF-0.079507247901774741
aF-0.21889623926728963
aF0.19264330261414245
aF0.13134598432709463
aF0.14024122546768822
aa(lp62
F0.070101103984355539
aF0.17097515487375395
aF0.013271954517176634
aF-0.17104285476171133
aF0.10402527889987342
aF-0.058667586668758383
aF0.033320553320392972
aF-0.068868146369512939
aF-0.036995773009434928
aF0.28152163038904138
aF0.0055534979170283154
aF0.088224432499846295
aF0.11211393418601555
aF0.077891544678467997
aF-0.0050002524931479055
aF0.19466137568457093
aF-0.13899158734094333
aF-0.17468646616816971
aF0.21896786653668368
aF0.081462459482510588
aF-0.14126576471225924
aF0.26215110369452949
aF0.026690385684180692
aF-0.17562512321823481
aF0.3175831994892323
aF-0.068825640853967335
aF0.18555636228964614
aF-0.13547805747904151
aF0.18212804017262649
aF-0.13150101900290648
aF0.29478008822627755
aF-0.024576066530947748
aF0.17919923886693437
aF-0.05627459760727159
aF0.0030877491936950156
aF0.3350722785911413
aF-0.14069065400198527
aF0.02753072680099836
aF-0.015997548331835885
aF0.22257952797240496
aF-0.078808741384797418
aF0.1618454690553848
aa(lp63
F0.16116579543250359
aF-0.16279470909586827
aF0.056067824398765238
aF-0.17037678048743921
aF-0.059577199374318067
aF0.17260712986870611
aF-0.16810633986292609
aF0.18853581053028998
aF0.22652408668917359
aF0.30898919565613053
aF0.030065378811049218
aF-0.12768551432471251
aF-0.11226677015407106
aF0.025102301269685934
aF0.17273822599024952
aF-0.12123419646292893
aF-0.0087225612631513863
aF0.23166420975931515
aF-0.1337907171609467
aF0.20560985843675911
aF0.18685334280871208
aF-0.10328750825511444
aF0.25452519131245416
aF-0.090662023679122447
aF0.064727874224780643
aF-0.17648854534506703
aF0.16739889580808534
aF0.0046474869640337245
aF0.16058942390071324
aF0.14252510688636122
aF-0.096934202770789998
aF0.020827011612536864
aF0.1933138913009167
aF0.20126040765149422
aF-0.13368859816235829
aF-0.13165435146720628
aF0.14958039670323051
aF0.10051469426390917
aF0.010590274268780226
aF0.30348968639792012
aF-0.031394592236536331
aF-0.076526565907678978
aa(lp64
F-0.060313907597465306
aF-0.1414414769930723
aF0.075517936998539426
aF0.089751522442963194
aF0.10034919726560662
aF0.14903942456540972
aF0.12161652307771667
aF0.22175046804637338
aF0.11297958925862915
aF-0.058222653462790687
aF0.0536985573202272
aF-0.0056264742719818244
aF0.16051559453592476
aF-0.054539646719971656
aF-0.16769356472281813
aF0.20440541446072791
aF0.28721986376435454
aF0.014247486369886339
aF-0.16524216229664029
aF0.038755442099968986
aF0.094190627748486036
aF0.049592201815096854
aF0.22900632229801854
aF0.2876644192811833
aF0.24890470026209299
aF-0.15161577053355133
aF0.22090703604436704
aF0.04299853433828299
aF-0.031983640643956333
aF0.11395906538057865
aF0.16115043542726165
aF0.2649462281844715
aF0.1943921658764397
aF-0.2176848127119726
aF-0.18995595302412352
aF-0.10996215492721137
aF-0.21102800806083666
aF-0.16731802419270508
aF0.15640645685035814
aF0.067495958688042479
aF0.094319103912889002
aF0.032409868440993375
aa(lp65
F0.032629896022315419
aF0.16878638237676347
aF-0.15816910727049463
aF0.029970960234253542
aF0.13351356884495688
aF-0.056240936394570083
aF-0.047709507384182913
aF0.091746107554113929
aF-0.10309642955925538
aF0.1990317993479678
aF0.041510389846323867
aF-0.018073383321408461
aF0.14831347646423196
aF0.23777135538973179
aF0.11439343361374962
aF-0.18164806366395206
aF0.16012044946580822
aF0.15881539510682754
aF0.21608945161001139
aF-0.16827029335976415
aF-0.19919556914105563
aF0.021769806948823585
aF-0.0054128265586318213
aF0.15037046907753718
aF-0.048769781310427709
aF0.15637886546157695
aF0.17771478776557348
aF-0.18937717370732507
aF0.16516133066730812
aF0.15401617377575313
aF-0.13216559735019115
aF0.30735203533570243
aF0.10331154968380718
aF0.16511730198706098
aF0.15942399266743931
aF-0.15007139995390711
aF-0.16131713752230731
aF0.19430405353429181
aF-0.05304262219235957
aF0.26883804658201166
aF0.19604766960331294
aF-0.16399083308960805
aa.